; Function Attrs: mustprogress nofree nounwind willreturn memory(read) uwtable
define dso_local i32 @_ZNK5clang26CXXUnresolvedConstructExpr11getBeginLocEv(ptr noundef nonnull readonly align 8 captures(none) dereferenceable(32) %0) local_unnamed_addr #6 align 2 {
  %2 = alloca %"class.clang::TypeLoc", align 8
  %3 = getelementptr inbounds nuw i8, ptr %0, i64 16
  %.0.copyload.i.i.i = load i64, ptr %3, align 8
  %4 = and i64 %.0.copyload.i.i.i, -8
  %5 = inttoptr i64 %4 to ptr
  %.sroa.0.0.copyload.i = load i64, ptr %5, align 8
  %6 = getelementptr inbounds nuw i8, ptr %5, i64 8
  %7 = inttoptr i64 %.sroa.0.0.copyload.i to ptr
  store ptr %7, ptr %2, align 8
  %8 = getelementptr inbounds nuw i8, ptr %2, i64 8
  store ptr %6, ptr %8, align 8
  %9 = call i32 @_ZNK5clang7TypeLoc11getBeginLocEv(ptr noundef nonnull align 8 dereferenceable(16) %2) #16
  ret i32 %9
}